target datalayout = "e-m:e-p270:32:32-p271:32:32-p272:64:64-i64:64-i128:128-f80:128-n8:16:32:64-S128"
target triple = "x86_64-pc-linux-gnu"

%class.LibRaw = type { ptr, %struct.libraw_data_t, ptr, %struct.libraw_internal_data_t, [2048 x %struct.decode], ptr, ptr, [10 x %struct.tiff_ifd_t], %class.libraw_memmgr, %struct.libraw_callbacks_t, { i64, i64 }, { i64, i64 }, { i64, i64 }, ptr, ptr, ptr, i64, ptr, ptr, ptr, ptr }
%struct.libraw_data_t = type { ptr, %struct.libraw_image_sizes_t, %struct.libraw_iparams_t, %struct.libraw_lensinfo_t, %struct.libraw_makernotes_t, %struct.libraw_shootinginfo_t, %struct.libraw_output_params_t, %struct.libraw_raw_unpack_params_t, i32, i32, %struct.libraw_colordata_t, %struct.libraw_imgother_t, %struct.libraw_thumbnail_t, %struct.libraw_thumbnail_list_t, %struct.libraw_rawdata_t, ptr }
%struct.libraw_image_sizes_t = type { i16, i16, i16, i16, i16, i16, i16, i16, i32, double, i32, [8 x [4 x i32]], i16, [2 x %struct.libraw_raw_inset_crop_t] }
%struct.libraw_raw_inset_crop_t = type { i16, i16, i16, i16 }
%struct.libraw_iparams_t = type { [4 x i8], [64 x i8], [64 x i8], [64 x i8], [64 x i8], [64 x i8], i32, i32, i32, i32, i32, i32, [6 x [6 x i8]], [6 x [6 x i8]], [5 x i8], i32, ptr }
%struct.libraw_lensinfo_t = type { float, float, float, float, float, [128 x i8], [128 x i8], [128 x i8], [128 x i8], i16, %struct.libraw_nikonlens_t, %struct.libraw_dnglens_t, %struct.libraw_makernotes_lens_t }
%struct.libraw_nikonlens_t = type { float, i8, i8, i8, i8 }
%struct.libraw_dnglens_t = type { float, float, float, float }
%struct.libraw_makernotes_lens_t = type { i64, [128 x i8], i16, i16, i64, i16, i16, [64 x i8], i16, [16 x i8], [16 x i8], float, float, float, float, float, float, float, float, float, float, float, float, float, float, float, i64, [128 x i8], i64, [128 x i8], i64, [128 x i8], i16, float }
%struct.libraw_makernotes_t = type { %struct.libraw_canon_makernotes_t, %struct.libraw_nikon_makernotes_t, %struct.libraw_hasselblad_makernotes_t, %struct.libraw_fuji_info_t, %struct.libraw_olympus_makernotes_t, %struct.libraw_sony_info_t, %struct.libraw_kodak_makernotes_t, %struct.libraw_panasonic_makernotes_t, %struct.libraw_pentax_makernotes_t, %struct.libraw_p1_makernotes_t, %struct.libraw_ricoh_makernotes_t, %struct.libraw_samsung_makernotes_t, %struct.libraw_metadata_common_t }
%struct.libraw_canon_makernotes_t = type { i32, i32, i32, i32, [4 x i32], i32, [4 x i32], i16, i16, i8, i16, i16, i16, i16, i16, i16, i16, i16, i16, i16, i16, i16, i16, i32, float, i16, i16, i16, i32, i16, i32, i32, i16, i32, %struct.libraw_area_t, %struct.libraw_area_t, %struct.libraw_area_t, %struct.libraw_area_t, %struct.libraw_area_t, [2 x i16] }
%struct.libraw_area_t = type { i16, i16, i16, i16 }
%struct.libraw_nikon_makernotes_t = type { double, i16, i16, [7 x i8], i8, i8, [13 x i8], [20 x i8], [4 x i8], [4 x i8], [4 x i8], i8, i8, i8, i8, i8, [2 x i8], i8, i8, i8, i8, i8, [4 x i8], [4 x i8], i8, i16, i32, i32, i32, i32, [4 x double], i8, i8, i8, i32, i32, i32, i8, [4 x i16], i16, %struct.libraw_sensor_highspeed_crop_t, i16, i16, i16, i32, [20 x i8], [20 x i8], i32, i16, double, double, double }
%struct.libraw_sensor_highspeed_crop_t = type { i16, i16, i16, i16 }
%struct.libraw_hasselblad_makernotes_t = type { i32, double, [8 x i8], [64 x i8], [64 x i8], i32, i32, i32, i32, [32 x i8], [64 x i8], i32, [2 x i32], [2 x i32], [4 x [3 x double]] }
%struct.libraw_fuji_info_t = type { float, i16, i16, i16, i16, i16, i16, i16, i16, [33 x i8], [33 x i8], float, i16, i16, [2 x i16], i16, i32, i32, i16, [3 x i16], i16, i16, i16, i16, i16, i32, i16, [13 x i8], [5 x i8], [5 x i8], i32, i16, i32, i16, [9 x i16], [32 x i32], i32, i32, i32, [2 x float], i32 }
%struct.libraw_olympus_makernotes_t = type { [6 x i8], i16, [2 x i32], [5 x i16], i16, [2 x i16], i16, i16, [64 x i32], [5 x double], i16, i8, [3 x i16], [3 x i32], i16, i16, i16, i16, double, [4 x i16], [2 x i32], i8, i32, i16, i16 }
%struct.libraw_sony_info_t = type { i16, i8, i8, i32, i8, i32, i8, i8, i16, [2 x i16], i8, i8, i16, [10 x i8], i8, i8, [4 x i16], i16, i8, i8, i8, i16, i32, i16, [2 x i16], i16, i16, i16, i16, i16, i16, i16, i32, float, i16, i32, i32, i16, [20 x i8], i32, i16, i32, i8, i8, i16, i16, i16, i16, i16, i16, i16, i16, i16, i32, i16, [16 x i8], float }
%struct.libraw_kodak_makernotes_t = type { i16, i16, i16, i16, i16, i16, [3 x [3 x float]], [3 x [3 x float]], [3 x [3 x float]], [3 x [3 x float]], [3 x [3 x float]], [3 x [3 x float]], i16, i16, i16, i16, float, float }
%struct.libraw_panasonic_makernotes_t = type { i16, i16, [8 x float], i32, float, [3 x i32], i16, i16, i32, i32 }
%struct.libraw_pentax_makernotes_t = type { [4 x i8], [2 x i16], [2 x i16], i16, i32, i32, i16, i16, i8, i8, i16 }
%struct.libraw_p1_makernotes_t = type { [64 x i8], [64 x i8], [256 x i8], [64 x i8] }
%struct.libraw_ricoh_makernotes_t = type { i16, [2 x i32], [2 x i32], i16, i32, i32, i32, i32, i16, i16, i16, i16, i16, i16, double, double }
%struct.libraw_samsung_makernotes_t = type { [4 x i32], [4 x i32], [2 x i32], [11 x i32], double, i32, [32 x i8] }
%struct.libraw_metadata_common_t = type { float, float, float, float, float, float, float, float, float, float, float, float, float, float, float, float, i16, [128 x i8], float, [4 x %struct.libraw_afinfo_item_t], i32 }
%struct.libraw_afinfo_item_t = type { i32, i16, i32, i32, ptr }
%struct.libraw_shootinginfo_t = type { i16, i16, i16, i16, i16, i16, i16, [64 x i8], [64 x i8] }
%struct.libraw_output_params_t = type { [4 x i32], [4 x i32], [4 x double], [6 x double], [4 x float], float, float, i32, i32, i32, i32, i32, i32, i32, ptr, ptr, ptr, ptr, i32, i32, i32, i32, i32, i32, [4 x i32], i32, i32, float, float, i32, i32, i32, i32, i32, i32, i32, i32, float, float, i32, i32 }
%struct.libraw_raw_unpack_params_t = type { i32, i32, i32, i32, i32, i32, i32, float, [5 x i8], ptr }
%struct.libraw_colordata_t = type { [65536 x i16], [4104 x i32], i32, i32, i32, [4 x i64], float, float, [8 x [8 x i16]], [4 x float], [4 x float], [3 x [4 x float]], [3 x [4 x float]], [3 x [4 x float]], [4 x [3 x float]], %struct.ph1_t, float, float, [64 x i8], [64 x i8], [64 x i8], [64 x i8], [17 x i8], [64 x i8], ptr, i32, [8 x i32], [2 x %struct.libraw_dng_color_t], %struct.libraw_dng_levels_t, [256 x [4 x i32]], [64 x [5 x float]], i32, [2 x %struct.libraw_P1_color_t], i32, i32 }
%struct.ph1_t = type { i32, i32, i32, i32, i32, i32, i32, i32, float }
%struct.libraw_dng_color_t = type { i32, i16, [4 x [4 x float]], [4 x [3 x float]], [3 x [4 x float]] }
%struct.libraw_dng_levels_t = type { i32, [4104 x i32], i32, [4104 x float], float, [4 x i32], [4 x i16], [4 x float], i32, [4 x float], [4 x float], float, float }
%struct.libraw_P1_color_t = type { [9 x float] }
%struct.libraw_imgother_t = type { float, float, float, float, i64, i32, [32 x i32], %struct.libraw_gps_info_t, [512 x i8], [64 x i8], [4 x float] }
%struct.libraw_gps_info_t = type { [3 x float], [3 x float], [3 x float], float, i8, i8, i8, i8, i8 }
%struct.libraw_thumbnail_t = type { i32, i16, i16, i32, i32, ptr }
%struct.libraw_thumbnail_list_t = type { i32, [8 x %struct.libraw_thumbnail_item_t] }
%struct.libraw_thumbnail_item_t = type { i32, i16, i16, i16, i32, i32, i64 }
%struct.libraw_rawdata_t = type { ptr, ptr, ptr, ptr, ptr, ptr, ptr, ptr, ptr, %struct.libraw_iparams_t, %struct.libraw_image_sizes_t, %struct.libraw_internal_output_params_t, %struct.libraw_colordata_t }
%struct.libraw_internal_output_params_t = type { i32, i32, i32, i16, i16 }
%struct.libraw_internal_data_t = type { %struct.internal_data_t, %struct.libraw_internal_output_params_t, %struct.output_data_t, %struct.identify_data_t, %struct.unpacker_data_t }
%struct.internal_data_t = type { ptr, ptr, i32, ptr, i64, i64, [4 x i32] }
%struct.output_data_t = type { ptr, ptr }
%struct.identify_data_t = type { i32, i64, i64, i32, i32, i32 }
%struct.unpacker_data_t = type { i16, [4 x i16], [3 x i16], i32, i64, i64, i64, i64, i64, i64, i32, i32, i32, i32, i32, i32, i32, i32, i32, i32, i32, i32, i32, i32, i32, i32, i32, i64, i32, i32, i32, i32, i32, i32, i32, i32, i32, %struct.pana8_tags_t, [16 x %struct.crx_data_header_t], i32, i32, i16, i16, i32, i32, i32, i32, i32, i32, i32, [20 x i32], i16 }
%struct.pana8_tags_t = type { [6 x i32], [6 x i16], i16, [4 x i16], [17 x i16], [17 x i16], [17 x i16], i16, i16, [5 x i64], [5 x i16], [5 x i32], [5 x i16], [5 x i16] }
%struct.crx_data_header_t = type { i32, i32, i32, i32, i32, i32, i32, i32, i32, i32, i32, i32, i32, i32, i32, i64, i32, ptr, i32, i32, i32, ptr, i32, ptr }
%struct.decode = type { [2 x ptr], i32 }
%struct.tiff_ifd_t = type { i32, i32, i32, i32, i32, i32, i32, i32, i32, i32, i32, i32, i32, i32, i32, ptr, i32, ptr, i32, i32, i32, i32, i32, i32, i32, float, i64, i64, i32, [2 x %struct.libraw_dng_color_t], %struct.libraw_dng_levels_t, i32 }
%class.libraw_memmgr = type <{ ptr, i32, [4 x i8] }>
%struct.libraw_callbacks_t = type { ptr, ptr, ptr, ptr, ptr, ptr, ptr, ptr, ptr, ptr, ptr, ptr, ptr, ptr, ptr, ptr, ptr }

; Function Attrs: mustprogress nounwind uwtable
define void @_ZN6LibRaw19process_Sony_0x940cEPht(ptr noundef nonnull align 8 dereferenceable(767680) %0, ptr noundef %1, i16 noundef zeroext %2) #2 align 2 {
  %4 = alloca ptr, align 8
  %5 = alloca ptr, align 8
  %6 = alloca i16, align 2
  %7 = alloca i16, align 2
  store ptr %0, ptr %4, align 8, !tbaa !6
  store ptr %1, ptr %5, align 8, !tbaa !102
  store i16 %2, ptr %6, align 2, !tbaa !94
  %8 = load ptr, ptr %4, align 8
  %9 = getelementptr inbounds nuw %class.LibRaw, ptr %8, i32 0, i32 1
  %10 = getelementptr inbounds nuw %struct.libraw_data_t, ptr %9, i32 0, i32 4
  %11 = getelementptr inbounds nuw %struct.libraw_makernotes_t, ptr %10, i32 0, i32 5
  %12 = getelementptr inbounds nuw %struct.libraw_sony_info_t, ptr %11, i32 0, i32 0
  %13 = load i16, ptr %12, align 8, !tbaa !91
  %14 = zext i16 %13 to i32
  %15 = icmp ne i32 %14, 5
  br i1 %15, label %16, label %25

16:                                               ; preds = %3
  %17 = getelementptr inbounds nuw %class.LibRaw, ptr %8, i32 0, i32 1
  %18 = getelementptr inbounds nuw %struct.libraw_data_t, ptr %17, i32 0, i32 4
  %19 = getelementptr inbounds nuw %struct.libraw_makernotes_t, ptr %18, i32 0, i32 5
  %20 = getelementptr inbounds nuw %struct.libraw_sony_info_t, ptr %19, i32 0, i32 0
  %21 = load i16, ptr %20, align 8, !tbaa !91
  %22 = zext i16 %21 to i32
  %23 = icmp ne i32 %22, 3
  br i1 %23, label %24, label %25

24:                                               ; preds = %16
  br label %156

25:                                               ; preds = %16, %3
  %26 = load i16, ptr %6, align 2, !tbaa !94
  %27 = zext i16 %26 to i32
  %28 = icmp sle i32 %27, 10
  br i1 %28, label %29, label %30

29:                                               ; preds = %25
  br label %156

30:                                               ; preds = %25
  call void @llvm.lifetime.start.p0(i64 2, ptr %7) #13
  %31 = getelementptr inbounds nuw %class.LibRaw, ptr %8, i32 0, i32 1
  %32 = getelementptr inbounds nuw %struct.libraw_data_t, ptr %31, i32 0, i32 3
  %33 = getelementptr inbounds nuw %struct.libraw_lensinfo_t, ptr %32, i32 0, i32 12
  %34 = getelementptr inbounds nuw %struct.libraw_makernotes_lens_t, ptr %33, i32 0, i32 3
  %35 = load i16, ptr %34, align 2, !tbaa !89
  %36 = zext i16 %35 to i32
  %37 = icmp ne i32 %36, 5
  br i1 %37, label %38, label %65

38:                                               ; preds = %30
  %39 = getelementptr inbounds nuw %class.LibRaw, ptr %8, i32 0, i32 1
  %40 = getelementptr inbounds nuw %struct.libraw_data_t, ptr %39, i32 0, i32 3
  %41 = getelementptr inbounds nuw %struct.libraw_lensinfo_t, ptr %40, i32 0, i32 12
  %42 = getelementptr inbounds nuw %struct.libraw_makernotes_lens_t, ptr %41, i32 0, i32 3
  %43 = load i16, ptr %42, align 2, !tbaa !89
  %44 = zext i16 %43 to i32
  %45 = icmp ne i32 %44, 39
  br i1 %45, label %46, label %65

46:                                               ; preds = %38
  %47 = load ptr, ptr %5, align 8, !tbaa !102
  %48 = getelementptr inbounds i8, ptr %47, i64 8
  %49 = load i8, ptr %48, align 1, !tbaa !104
  %50 = zext i8 %49 to i64
  %51 = getelementptr inbounds nuw [257 x i8], ptr @_ZL16SonySubstitution, i64 0, i64 %50
  %52 = load i8, ptr %51, align 1, !tbaa !104
  %53 = zext i8 %52 to i32
  switch i32 %53, label %64 [
    i32 1, label %54
    i32 5, label %54
    i32 4, label %59
  ]

54:                                               ; preds = %46, %46
  %55 = getelementptr inbounds nuw %class.LibRaw, ptr %8, i32 0, i32 1
  %56 = getelementptr inbounds nuw %struct.libraw_data_t, ptr %55, i32 0, i32 3
  %57 = getelementptr inbounds nuw %struct.libraw_lensinfo_t, ptr %56, i32 0, i32 12
  %58 = getelementptr inbounds nuw %struct.libraw_makernotes_lens_t, ptr %57, i32 0, i32 3
  store i16 25, ptr %58, align 2, !tbaa !89
  br label %64

59:                                               ; preds = %46
  %60 = getelementptr inbounds nuw %class.LibRaw, ptr %8, i32 0, i32 1
  %61 = getelementptr inbounds nuw %struct.libraw_data_t, ptr %60, i32 0, i32 3
  %62 = getelementptr inbounds nuw %struct.libraw_lensinfo_t, ptr %61, i32 0, i32 12
  %63 = getelementptr inbounds nuw %struct.libraw_makernotes_lens_t, ptr %62, i32 0, i32 3
  store i16 40, ptr %63, align 2, !tbaa !89
  br label %64

64:                                               ; preds = %46, %59, %54
  br label %65

65:                                               ; preds = %64, %38, %30
  %66 = getelementptr inbounds nuw %class.LibRaw, ptr %8, i32 0, i32 1
  %67 = getelementptr inbounds nuw %struct.libraw_data_t, ptr %66, i32 0, i32 3
  %68 = getelementptr inbounds nuw %struct.libraw_lensinfo_t, ptr %67, i32 0, i32 12
  %69 = getelementptr inbounds nuw %struct.libraw_makernotes_lens_t, ptr %68, i32 0, i32 3
  %70 = load i16, ptr %69, align 2, !tbaa !89
  %71 = zext i16 %70 to i32
  %72 = icmp ne i32 %71, 0
  br i1 %72, label %73, label %155

73:                                               ; preds = %65
  %74 = load ptr, ptr %5, align 8, !tbaa !102
  %75 = getelementptr inbounds i8, ptr %74, i64 10
  %76 = load i8, ptr %75, align 1, !tbaa !104
  %77 = zext i8 %76 to i64
  %78 = getelementptr inbounds nuw [257 x i8], ptr @_ZL16SonySubstitution, i64 0, i64 %77
  %79 = load i8, ptr %78, align 1, !tbaa !104
  %80 = zext i8 %79 to i16
  %81 = zext i16 %80 to i32
  %82 = shl i32 %81, 8
  %83 = load ptr, ptr %5, align 8, !tbaa !102
  %84 = getelementptr inbounds i8, ptr %83, i64 9
  %85 = load i8, ptr %84, align 1, !tbaa !104
  %86 = zext i8 %85 to i64
  %87 = getelementptr inbounds nuw [257 x i8], ptr @_ZL16SonySubstitution, i64 0, i64 %86
  %88 = load i8, ptr %87, align 1, !tbaa !104
  %89 = zext i8 %88 to i16
  %90 = zext i16 %89 to i32
  %91 = or i32 %82, %90
  %92 = trunc i32 %91 to i16
  store i16 %92, ptr %7, align 2, !tbaa !94
  %93 = load i16, ptr %7, align 2, !tbaa !94
  %94 = zext i16 %93 to i32
  %95 = icmp sgt i32 %94, 0
  br i1 %95, label %96, label %127

96:                                               ; preds = %73
  %97 = load i16, ptr %7, align 2, !tbaa !94
  %98 = zext i16 %97 to i32
  %99 = icmp slt i32 %98, 32784
  br i1 %99, label %114, label %100

100:                                              ; preds = %96
  %101 = getelementptr inbounds nuw %class.LibRaw, ptr %8, i32 0, i32 1
  %102 = getelementptr inbounds nuw %struct.libraw_data_t, ptr %101, i32 0, i32 3
  %103 = getelementptr inbounds nuw %struct.libraw_lensinfo_t, ptr %102, i32 0, i32 12
  %104 = getelementptr inbounds nuw %struct.libraw_makernotes_lens_t, ptr %103, i32 0, i32 0
  %105 = load i64, ptr %104, align 8, !tbaa !106
  %106 = icmp eq i64 %105, 6553
  br i1 %106, label %114, label %107

107:                                              ; preds = %100
  %108 = getelementptr inbounds nuw %class.LibRaw, ptr %8, i32 0, i32 1
  %109 = getelementptr inbounds nuw %struct.libraw_data_t, ptr %108, i32 0, i32 3
  %110 = getelementptr inbounds nuw %struct.libraw_lensinfo_t, ptr %109, i32 0, i32 12
  %111 = getelementptr inbounds nuw %struct.libraw_makernotes_lens_t, ptr %110, i32 0, i32 0
  %112 = load i64, ptr %111, align 8, !tbaa !106
  %113 = icmp eq i64 %112, 65535
  br i1 %113, label %114, label %127

114:                                              ; preds = %107, %100, %96
  %115 = load ptr, ptr %5, align 8, !tbaa !102
  %116 = getelementptr inbounds i8, ptr %115, i64 10
  %117 = load i8, ptr %116, align 1, !tbaa !104
  %118 = zext i8 %117 to i64
  %119 = getelementptr inbounds nuw [257 x i8], ptr @_ZL16SonySubstitution, i64 0, i64 %118
  %120 = load i8, ptr %119, align 1, !tbaa !104
  %121 = load ptr, ptr %5, align 8, !tbaa !102
  %122 = getelementptr inbounds i8, ptr %121, i64 9
  %123 = load i8, ptr %122, align 1, !tbaa !104
  %124 = zext i8 %123 to i64
  %125 = getelementptr inbounds nuw [257 x i8], ptr @_ZL16SonySubstitution, i64 0, i64 %124
  %126 = load i8, ptr %125, align 1, !tbaa !104
  call void @_ZN6LibRaw18parseSonyLensType2Ehh(ptr noundef nonnull align 8 dereferenceable(767680) %8, i8 noundef zeroext %120, i8 noundef zeroext %126)
  br label %127

127:                                              ; preds = %114, %107, %73
  %128 = load i16, ptr %7, align 2, !tbaa !94
  %129 = zext i16 %128 to i32
  %130 = icmp eq i32 %129, 44
  br i1 %130, label %147, label %131

131:                                              ; preds = %127
  %132 = load i16, ptr %7, align 2, !tbaa !94
  %133 = zext i16 %132 to i32
  %134 = icmp eq i32 %133, 78
  br i1 %134, label %147, label %135

135:                                              ; preds = %131
  %136 = load i16, ptr %7, align 2, !tbaa !94
  %137 = zext i16 %136 to i32
  %138 = icmp eq i32 %137, 184
  br i1 %138, label %147, label %139

139:                                              ; preds = %135
  %140 = load i16, ptr %7, align 2, !tbaa !94
  %141 = zext i16 %140 to i32
  %142 = icmp eq i32 %141, 234
  br i1 %142, label %147, label %143

143:                                              ; preds = %139
  %144 = load i16, ptr %7, align 2, !tbaa !94
  %145 = zext i16 %144 to i32
  %146 = icmp eq i32 %145, 239
  br i1 %146, label %147, label %154

147:                                              ; preds = %143, %139, %135, %131, %127
  %148 = load i16, ptr %7, align 2, !tbaa !94
  %149 = zext i16 %148 to i64
  %150 = getelementptr inbounds nuw %class.LibRaw, ptr %8, i32 0, i32 1
  %151 = getelementptr inbounds nuw %struct.libraw_data_t, ptr %150, i32 0, i32 3
  %152 = getelementptr inbounds nuw %struct.libraw_lensinfo_t, ptr %151, i32 0, i32 12
  %153 = getelementptr inbounds nuw %struct.libraw_makernotes_lens_t, ptr %152, i32 0, i32 28
  store i64 %149, ptr %153, align 8, !tbaa !105
  br label %154

154:                                              ; preds = %147, %143
  br label %155

155:                                              ; preds = %154, %65
  call void @llvm.lifetime.end.p0(i64 2, ptr %7) #13
  br label %156

156:                                              ; preds = %155, %29, %24
  ret void
}