; Function Attrs: mustprogress nofree norecurse nosync nounwind willreturn memory(argmem: readwrite) uwtable
define void @_ZN6LibRaw19process_Sony_0x940cEPht(ptr noundef nonnull align 8 captures(none) dereferenceable(767680) %0, ptr noundef readonly captures(none) %1, i16 noundef zeroext %2) local_unnamed_addr #5 align 2 {
  %4 = getelementptr inbounds nuw i8, ptr %0, i64 3512
  %5 = load i16, ptr %4, align 8, !tbaa !87
  %.not = icmp eq i16 %5, 5
  br i1 %.not, label %9, label %6

6:                                                ; preds = %3
  %7 = icmp ne i16 %5, 3
  %8 = icmp ult i16 %2, 11
  %or.cond14 = or i1 %8, %7
  br i1 %or.cond14, label %45, label %10

9:                                                ; preds = %3
  %.old13 = icmp ult i16 %2, 11
  br i1 %.old13, label %45, label %10

10:                                               ; preds = %6, %9
  %11 = getelementptr inbounds nuw i8, ptr %0, i64 1200
  %12 = getelementptr inbounds nuw i8, ptr %0, i64 1338
  %13 = load i16, ptr %12, align 2, !tbaa !85
  switch i16 %13, label %14 [
    i16 5, label %.thread
    i16 39, label %.thread
  ]

14:                                               ; preds = %10
  %15 = getelementptr inbounds nuw i8, ptr %1, i64 8
  %16 = load i8, ptr %15, align 1, !tbaa !101
  %17 = zext i8 %16 to i64
  %18 = getelementptr inbounds nuw [257 x i8], ptr @_ZL16SonySubstitution, i64 0, i64 %17
  %19 = load i8, ptr %18, align 1, !tbaa !101
  switch i8 %19, label %21 [
    i8 1, label %.thread.sink.split
    i8 5, label %.thread.sink.split
    i8 4, label %20
  ]

20:                                               ; preds = %14
  br label %.thread.sink.split

21:                                               ; preds = %14
  %.not34 = icmp eq i16 %13, 0
  br i1 %.not34, label %45, label %.thread

.thread.sink.split:                               ; preds = %14, %14, %20
  %.sink = phi i16 [ 40, %20 ], [ 25, %14 ], [ 25, %14 ]
  store i16 %.sink, ptr %12, align 2, !tbaa !85
  br label %.thread

.thread:                                          ; preds = %.thread.sink.split, %10, %10, %21
  %22 = getelementptr inbounds nuw i8, ptr %1, i64 10
  %23 = load i8, ptr %22, align 1, !tbaa !101
  %24 = zext i8 %23 to i64
  %25 = getelementptr inbounds nuw [257 x i8], ptr @_ZL16SonySubstitution, i64 0, i64 %24
  %26 = load i8, ptr %25, align 1, !tbaa !101
  %27 = zext i8 %26 to i16
  %28 = shl nuw i16 %27, 8
  %29 = getelementptr inbounds nuw i8, ptr %1, i64 9
  %30 = load i8, ptr %29, align 1, !tbaa !101
  %31 = zext i8 %30 to i64
  %32 = getelementptr inbounds nuw [257 x i8], ptr @_ZL16SonySubstitution, i64 0, i64 %31
  %33 = load i8, ptr %32, align 1, !tbaa !101
  %34 = zext i8 %33 to i16
  %35 = or disjoint i16 %28, %34
  %cond = icmp eq i16 %35, 0
  br i1 %cond, label %45, label %36

36:                                               ; preds = %.thread
  %37 = icmp ult i16 %35, -32752
  br i1 %37, label %40, label %38

38:                                               ; preds = %36
  %39 = load i64, ptr %11, align 8, !tbaa !100
  switch i64 %39, label %41 [
    i64 6553, label %40
    i64 65535, label %40
  ]

40:                                               ; preds = %38, %38, %36
  tail call void @_ZN6LibRaw18parseSonyLensType2Ehh(ptr noundef nonnull align 8 dereferenceable(767680) %0, i8 noundef zeroext %26, i8 noundef zeroext %33)
  br label %41

41:                                               ; preds = %38, %40
  switch i16 %35, label %45 [
    i16 239, label %42
    i16 234, label %42
    i16 184, label %42
    i16 78, label %42
    i16 44, label %42
  ]

42:                                               ; preds = %41, %41, %41, %41, %41
  %43 = zext nneg i16 %35 to i64
  %44 = getelementptr inbounds nuw i8, ptr %0, i64 1656
  store i64 %43, ptr %44, align 8, !tbaa !99
  br label %45

45:                                               ; preds = %.thread, %21, %42, %41, %9, %6
  ret void
}